target datalayout = "e-m:e-p270:32:32-p271:32:32-p272:64:64-i64:64-i128:128-f80:128-n8:16:32:64-S128"
target triple = "x86_64-pc-linux-gnu"

%"class.icu_77::DateTimeRule" = type <{ %"class.icu_77::UObject", i32, i32, i32, i32, i32, i32, i32, [4 x i8] }>
%"class.icu_77::UObject" = type { ptr }
%"class.std::type_info" = type { ptr, ptr }

; Function Attrs: mustprogress nounwind uwtable
define linkonce_odr noundef ptr @_ZNKSt9type_info4nameEv(ptr noundef nonnull align 8 dereferenceable(16) %0) #0 comdat align 2 {
  %2 = alloca ptr, align 8
  store ptr %0, ptr %2, align 8, !tbaa !27
  %3 = load ptr, ptr %2, align 8
  %4 = getelementptr inbounds nuw %"class.std::type_info", ptr %3, i32 0, i32 1
  %5 = load ptr, ptr %4, align 8, !tbaa !29
  %6 = getelementptr inbounds i8, ptr %5, i64 0
  %7 = load i8, ptr %6, align 1, !tbaa !26
  %8 = sext i8 %7 to i32
  %9 = icmp eq i32 %8, 42
  br i1 %9, label %10, label %14

10:                                               ; preds = %1
  %11 = getelementptr inbounds nuw %"class.std::type_info", ptr %3, i32 0, i32 1
  %12 = load ptr, ptr %11, align 8, !tbaa !29
  %13 = getelementptr inbounds i8, ptr %12, i64 1
  br label %17

14:                                               ; preds = %1
  %15 = getelementptr inbounds nuw %"class.std::type_info", ptr %3, i32 0, i32 1
  %16 = load ptr, ptr %15, align 8, !tbaa !29
  br label %17

17:                                               ; preds = %14, %10
  %18 = phi ptr [ %13, %10 ], [ %16, %14 ]
  ret ptr %18
}

; Function Attrs: inlinehint mustprogress nounwind uwtable
define linkonce_odr noundef zeroext i1 @_ZNKSt9type_infoeqERKS_(ptr noundef nonnull align 8 dereferenceable(16) %0, ptr noundef nonnull align 8 dereferenceable(16) %1) #1 comdat align 2 {
  %3 = alloca i1, align 1
  %4 = alloca ptr, align 8
  %5 = alloca ptr, align 8
  store ptr %0, ptr %4, align 8, !tbaa !27
  store ptr %1, ptr %5, align 8, !tbaa !27
  %6 = load ptr, ptr %4, align 8
  %7 = getelementptr inbounds nuw %"class.std::type_info", ptr %6, i32 0, i32 1
  %8 = load ptr, ptr %7, align 8, !tbaa !29
  %9 = load ptr, ptr %5, align 8, !tbaa !27
  %10 = getelementptr inbounds nuw %"class.std::type_info", ptr %9, i32 0, i32 1
  %11 = load ptr, ptr %10, align 8, !tbaa !29
  %12 = icmp eq ptr %8, %11
  br i1 %12, label %13, label %14

13:                                               ; preds = %2
  store i1 true, ptr %3, align 1
  br label %30

14:                                               ; preds = %2
  %15 = getelementptr inbounds nuw %"class.std::type_info", ptr %6, i32 0, i32 1
  %16 = load ptr, ptr %15, align 8, !tbaa !29
  %17 = getelementptr inbounds i8, ptr %16, i64 0
  %18 = load i8, ptr %17, align 1, !tbaa !26
  %19 = sext i8 %18 to i32
  %20 = icmp ne i32 %19, 42
  br i1 %20, label %21, label %28

21:                                               ; preds = %14
  %22 = getelementptr inbounds nuw %"class.std::type_info", ptr %6, i32 0, i32 1
  %23 = load ptr, ptr %22, align 8, !tbaa !29
  %24 = load ptr, ptr %5, align 8, !tbaa !27
  %25 = call noundef ptr @_ZNKSt9type_info4nameEv(ptr noundef nonnull align 8 dereferenceable(16) %24) #6
  %26 = call i32 @strcmp(ptr noundef %23, ptr noundef %25) #6
  %27 = icmp eq i32 %26, 0
  br label %28

28:                                               ; preds = %21, %14
  %29 = phi i1 [ false, %14 ], [ %27, %21 ]
  store i1 %29, ptr %3, align 1
  br label %30

30:                                               ; preds = %28, %13
  %31 = load i1, ptr %3, align 1
  ret i1 %31
}

; Function Attrs: mustprogress uwtable
define noundef zeroext i1 @_ZNK6icu_7712DateTimeRuleeqERKS0_(ptr noundef nonnull align 8 dereferenceable(36) %0, ptr noundef nonnull align 8 dereferenceable(36) %1) #4 align 2 {
  %3 = alloca ptr, align 8
  %4 = alloca ptr, align 8
  store ptr %0, ptr %3, align 8, !tbaa !3
  store ptr %1, ptr %4, align 8, !tbaa !3
  %5 = load ptr, ptr %3, align 8
  %6 = load ptr, ptr %4, align 8, !tbaa !3
  %7 = icmp eq ptr %5, %6
  br i1 %7, label %71, label %8

8:                                                ; preds = %2
  %9 = icmp eq ptr %5, null
  br i1 %9, label %10, label %11

10:                                               ; preds = %8
  call void @__cxa_bad_typeid() #7
  unreachable

11:                                               ; preds = %8
  %12 = load ptr, ptr %5, align 8, !tbaa !12
  %13 = getelementptr inbounds ptr, ptr %12, i64 -1
  %14 = load ptr, ptr %13, align 8
  %15 = load ptr, ptr %4, align 8, !tbaa !3
  %16 = load ptr, ptr %15, align 8, !tbaa !12
  %17 = getelementptr inbounds ptr, ptr %16, i64 -1
  %18 = load ptr, ptr %17, align 8
  %19 = call noundef zeroext i1 @_ZNKSt9type_infoeqERKS_(ptr noundef nonnull align 8 dereferenceable(16) %14, ptr noundef nonnull align 8 dereferenceable(16) %18) #6
  br i1 %19, label %20, label %69

20:                                               ; preds = %11
  %21 = getelementptr inbounds nuw %"class.icu_77::DateTimeRule", ptr %5, i32 0, i32 1
  %22 = load i32, ptr %21, align 8, !tbaa !14
  %23 = load ptr, ptr %4, align 8, !tbaa !3
  %24 = getelementptr inbounds nuw %"class.icu_77::DateTimeRule", ptr %23, i32 0, i32 1
  %25 = load i32, ptr %24, align 8, !tbaa !14
  %26 = icmp eq i32 %22, %25
  br i1 %26, label %27, label %69

27:                                               ; preds = %20
  %28 = getelementptr inbounds nuw %"class.icu_77::DateTimeRule", ptr %5, i32 0, i32 2
  %29 = load i32, ptr %28, align 4, !tbaa !18
  %30 = load ptr, ptr %4, align 8, !tbaa !3
  %31 = getelementptr inbounds nuw %"class.icu_77::DateTimeRule", ptr %30, i32 0, i32 2
  %32 = load i32, ptr %31, align 4, !tbaa !18
  %33 = icmp eq i32 %29, %32
  br i1 %33, label %34, label %69

34:                                               ; preds = %27
  %35 = getelementptr inbounds nuw %"class.icu_77::DateTimeRule", ptr %5, i32 0, i32 3
  %36 = load i32, ptr %35, align 8, !tbaa !19
  %37 = load ptr, ptr %4, align 8, !tbaa !3
  %38 = getelementptr inbounds nuw %"class.icu_77::DateTimeRule", ptr %37, i32 0, i32 3
  %39 = load i32, ptr %38, align 8, !tbaa !19
  %40 = icmp eq i32 %36, %39
  br i1 %40, label %41, label %69

41:                                               ; preds = %34
  %42 = getelementptr inbounds nuw %"class.icu_77::DateTimeRule", ptr %5, i32 0, i32 4
  %43 = load i32, ptr %42, align 4, !tbaa !20
  %44 = load ptr, ptr %4, align 8, !tbaa !3
  %45 = getelementptr inbounds nuw %"class.icu_77::DateTimeRule", ptr %44, i32 0, i32 4
  %46 = load i32, ptr %45, align 4, !tbaa !20
  %47 = icmp eq i32 %43, %46
  br i1 %47, label %48, label %69

48:                                               ; preds = %41
  %49 = getelementptr inbounds nuw %"class.icu_77::DateTimeRule", ptr %5, i32 0, i32 5
  %50 = load i32, ptr %49, align 8, !tbaa !21
  %51 = load ptr, ptr %4, align 8, !tbaa !3
  %52 = getelementptr inbounds nuw %"class.icu_77::DateTimeRule", ptr %51, i32 0, i32 5
  %53 = load i32, ptr %52, align 8, !tbaa !21
  %54 = icmp eq i32 %50, %53
  br i1 %54, label %55, label %69

55:                                               ; preds = %48
  %56 = getelementptr inbounds nuw %"class.icu_77::DateTimeRule", ptr %5, i32 0, i32 6
  %57 = load i32, ptr %56, align 4, !tbaa !22
  %58 = load ptr, ptr %4, align 8, !tbaa !3
  %59 = getelementptr inbounds nuw %"class.icu_77::DateTimeRule", ptr %58, i32 0, i32 6
  %60 = load i32, ptr %59, align 4, !tbaa !22
  %61 = icmp eq i32 %57, %60
  br i1 %61, label %62, label %69

62:                                               ; preds = %55
  %63 = getelementptr inbounds nuw %"class.icu_77::DateTimeRule", ptr %5, i32 0, i32 7
  %64 = load i32, ptr %63, align 8, !tbaa !23
  %65 = load ptr, ptr %4, align 8, !tbaa !3
  %66 = getelementptr inbounds nuw %"class.icu_77::DateTimeRule", ptr %65, i32 0, i32 7
  %67 = load i32, ptr %66, align 8, !tbaa !23
  %68 = icmp eq i32 %64, %67
  br label %69

69:                                               ; preds = %62, %55, %48, %41, %34, %27, %20, %11
  %70 = phi i1 [ false, %55 ], [ false, %48 ], [ false, %41 ], [ false, %34 ], [ false, %27 ], [ false, %20 ], [ false, %11 ], [ %68, %62 ]
  br label %71

71:                                               ; preds = %69, %2
  %72 = phi i1 [ true, %2 ], [ %70, %69 ]
  ret i1 %72
}