; Function Attrs: mustprogress nofree nounwind willreturn memory(read, inaccessiblemem: none) uwtable
define noundef zeroext i1 @_ZNK6icu_7712DateTimeRuleeqERKS0_(ptr noundef nonnull readonly align 8 dereferenceable(36) %0, ptr noundef nonnull readonly align 8 dereferenceable(36) %1) local_unnamed_addr #6 align 2 {
  %3 = icmp eq ptr %0, %1
  br i1 %3, label %_ZNKSt9type_infoeqERKS_.exit.thread12, label %4

4:                                                ; preds = %2
  %5 = load ptr, ptr %0, align 8, !tbaa !3
  %6 = getelementptr inbounds i8, ptr %5, i64 -8
  %7 = load ptr, ptr %6, align 8
  %8 = load ptr, ptr %1, align 8, !tbaa !3
  %9 = getelementptr inbounds i8, ptr %8, i64 -8
  %10 = load ptr, ptr %9, align 8
  %11 = getelementptr inbounds nuw i8, ptr %7, i64 8
  %12 = load ptr, ptr %11, align 8, !tbaa !19
  %13 = getelementptr inbounds nuw i8, ptr %10, i64 8
  %14 = load ptr, ptr %13, align 8, !tbaa !19
  %15 = icmp eq ptr %12, %14
  br i1 %15, label %_ZNKSt9type_infoeqERKS_.exit.thread, label %16

16:                                               ; preds = %4
  %17 = load i8, ptr %12, align 1, !tbaa !23
  %.not.i = icmp eq i8 %17, 42
  br i1 %.not.i, label %_ZNKSt9type_infoeqERKS_.exit.thread12, label %_ZNKSt9type_infoeqERKS_.exit

_ZNKSt9type_infoeqERKS_.exit:                     ; preds = %16
  %18 = load i8, ptr %14, align 1, !tbaa !23
  %19 = icmp eq i8 %18, 42
  %.idx.i.i = zext i1 %19 to i64
  %20 = getelementptr inbounds nuw i8, ptr %14, i64 %.idx.i.i
  %21 = tail call i32 @strcmp(ptr noundef nonnull dereferenceable(1) %12, ptr noundef nonnull dereferenceable(1) %20) #9
  %22 = icmp eq i32 %21, 0
  br i1 %22, label %_ZNKSt9type_infoeqERKS_.exit.thread, label %_ZNKSt9type_infoeqERKS_.exit.thread12

_ZNKSt9type_infoeqERKS_.exit.thread:              ; preds = %4, %_ZNKSt9type_infoeqERKS_.exit
  %23 = getelementptr inbounds nuw i8, ptr %0, i64 8
  %24 = load i32, ptr %23, align 8, !tbaa !6
  %25 = getelementptr inbounds nuw i8, ptr %1, i64 8
  %26 = load i32, ptr %25, align 8, !tbaa !6
  %27 = icmp eq i32 %24, %26
  br i1 %27, label %28, label %_ZNKSt9type_infoeqERKS_.exit.thread12

28:                                               ; preds = %_ZNKSt9type_infoeqERKS_.exit.thread
  %29 = getelementptr inbounds nuw i8, ptr %0, i64 12
  %30 = load i32, ptr %29, align 4, !tbaa !13
  %31 = getelementptr inbounds nuw i8, ptr %1, i64 12
  %32 = load i32, ptr %31, align 4, !tbaa !13
  %33 = icmp eq i32 %30, %32
  br i1 %33, label %34, label %_ZNKSt9type_infoeqERKS_.exit.thread12

34:                                               ; preds = %28
  %35 = getelementptr inbounds nuw i8, ptr %0, i64 16
  %36 = load i32, ptr %35, align 8, !tbaa !14
  %37 = getelementptr inbounds nuw i8, ptr %1, i64 16
  %38 = load i32, ptr %37, align 8, !tbaa !14
  %39 = icmp eq i32 %36, %38
  br i1 %39, label %40, label %_ZNKSt9type_infoeqERKS_.exit.thread12

40:                                               ; preds = %34
  %41 = getelementptr inbounds nuw i8, ptr %0, i64 20
  %42 = load i32, ptr %41, align 4, !tbaa !15
  %43 = getelementptr inbounds nuw i8, ptr %1, i64 20
  %44 = load i32, ptr %43, align 4, !tbaa !15
  %45 = icmp eq i32 %42, %44
  br i1 %45, label %46, label %_ZNKSt9type_infoeqERKS_.exit.thread12

46:                                               ; preds = %40
  %47 = getelementptr inbounds nuw i8, ptr %0, i64 24
  %48 = load i32, ptr %47, align 8, !tbaa !16
  %49 = getelementptr inbounds nuw i8, ptr %1, i64 24
  %50 = load i32, ptr %49, align 8, !tbaa !16
  %51 = icmp eq i32 %48, %50
  br i1 %51, label %52, label %_ZNKSt9type_infoeqERKS_.exit.thread12

52:                                               ; preds = %46
  %53 = getelementptr inbounds nuw i8, ptr %0, i64 28
  %54 = load i32, ptr %53, align 4, !tbaa !17
  %55 = getelementptr inbounds nuw i8, ptr %1, i64 28
  %56 = load i32, ptr %55, align 4, !tbaa !17
  %57 = icmp eq i32 %54, %56
  br i1 %57, label %58, label %_ZNKSt9type_infoeqERKS_.exit.thread12

58:                                               ; preds = %52
  %59 = getelementptr inbounds nuw i8, ptr %0, i64 32
  %60 = load i32, ptr %59, align 8, !tbaa !18
  %61 = getelementptr inbounds nuw i8, ptr %1, i64 32
  %62 = load i32, ptr %61, align 8, !tbaa !18
  %63 = icmp eq i32 %60, %62
  br label %_ZNKSt9type_infoeqERKS_.exit.thread12

_ZNKSt9type_infoeqERKS_.exit.thread12:            ; preds = %16, %_ZNKSt9type_infoeqERKS_.exit, %_ZNKSt9type_infoeqERKS_.exit.thread, %28, %34, %40, %46, %52, %58, %2
  %64 = phi i1 [ true, %2 ], [ false, %52 ], [ false, %46 ], [ false, %40 ], [ false, %34 ], [ false, %28 ], [ false, %_ZNKSt9type_infoeqERKS_.exit.thread ], [ false, %_ZNKSt9type_infoeqERKS_.exit ], [ %63, %58 ], [ false, %16 ]
  ret i1 %64
}